target datalayout = "e-m:e-p270:32:32-p271:32:32-p272:64:64-i64:64-i128:128-f80:128-n8:16:32:64-S128"
target triple = "x86_64-pc-linux-gnu"

@stderr = external global ptr, align 8
@.str.22 = private unnamed_addr constant [11 x i8] c"info_job.c\00", align 1
@.str.44 = private unnamed_addr constant [22 x i8] c"Invalid hostlist: %s\0A\00", align 1
@.str.45 = private unnamed_addr constant [4 x i8] c"%s\0A\00", align 1
@.str.46 = private unnamed_addr constant [18 x i8] c"Hostlist is NULL\0A\00", align 1
@.str.47 = private unnamed_addr constant [2 x i8] c"-\00", align 1
@.str.48 = private unnamed_addr constant [11 x i8] c"/dev/stdin\00", align 1
@.str.49 = private unnamed_addr constant [17 x i8] c"Can not open %s\0A\00", align 1
@__func__.scontrol_encode_hostlist = private unnamed_addr constant [25 x i8] c"scontrol_encode_hostlist\00", align 1
@.str.50 = private unnamed_addr constant [18 x i8] c"Error reading %s\0A\00", align 1
@.str.51 = private unnamed_addr constant [22 x i8] c"File %s is too large\0A\00", align 1

; Function Attrs: nounwind uwtable
define internal void @_reformat_hostlist(ptr noundef %0) #0 {
  %2 = alloca ptr, align 8
  %3 = alloca i32, align 4
  %4 = alloca i32, align 4
  store ptr %0, ptr %2, align 8
  call void @llvm.lifetime.start.p0(i64 4, ptr %3) #9
  call void @llvm.lifetime.start.p0(i64 4, ptr %4) #9
  store i32 0, ptr %3, align 4
  br label %5

5:                                                ; preds = %27, %1
  %6 = load ptr, ptr %2, align 8
  %7 = load i32, ptr %3, align 4
  %8 = sext i32 %7 to i64
  %9 = getelementptr inbounds i8, ptr %6, i64 %8
  %10 = load i8, ptr %9, align 1
  %11 = sext i8 %10 to i32
  %12 = icmp ne i32 %11, 0
  br i1 %12, label %13, label %30

13:                                               ; preds = %5
  %14 = load ptr, ptr %2, align 8
  %15 = load i32, ptr %3, align 4
  %16 = sext i32 %15 to i64
  %17 = getelementptr inbounds i8, ptr %14, i64 %16
  %18 = load i8, ptr %17, align 1
  %19 = sext i8 %18 to i32
  %20 = icmp eq i32 %19, 10
  br i1 %20, label %21, label %26

21:                                               ; preds = %13
  %22 = load ptr, ptr %2, align 8
  %23 = load i32, ptr %3, align 4
  %24 = sext i32 %23 to i64
  %25 = getelementptr inbounds i8, ptr %22, i64 %24
  store i8 44, ptr %25, align 1
  br label %26

26:                                               ; preds = %21, %13
  br label %27

27:                                               ; preds = %26
  %28 = load i32, ptr %3, align 4
  %29 = add nsw i32 %28, 1
  store i32 %29, ptr %3, align 4
  br label %5, !llvm.loop !28

30:                                               ; preds = %5
  store i32 0, ptr %4, align 4
  store i32 0, ptr %3, align 4
  br label %31

31:                                               ; preds = %73, %30
  %32 = load ptr, ptr %2, align 8
  %33 = load i32, ptr %3, align 4
  %34 = sext i32 %33 to i64
  %35 = getelementptr inbounds i8, ptr %32, i64 %34
  %36 = load i8, ptr %35, align 1
  %37 = sext i8 %36 to i32
  %38 = icmp ne i32 %37, 0
  br i1 %38, label %39, label %76

39:                                               ; preds = %31
  br label %40

40:                                               ; preds = %59, %39
  %41 = load ptr, ptr %2, align 8
  %42 = load i32, ptr %3, align 4
  %43 = sext i32 %42 to i64
  %44 = getelementptr inbounds i8, ptr %41, i64 %43
  %45 = load i8, ptr %44, align 1
  %46 = sext i8 %45 to i32
  %47 = icmp eq i32 %46, 44
  br i1 %47, label %48, label %57

48:                                               ; preds = %40
  %49 = load ptr, ptr %2, align 8
  %50 = load i32, ptr %3, align 4
  %51 = add nsw i32 %50, 1
  %52 = sext i32 %51 to i64
  %53 = getelementptr inbounds i8, ptr %49, i64 %52
  %54 = load i8, ptr %53, align 1
  %55 = sext i8 %54 to i32
  %56 = icmp eq i32 %55, 44
  br label %57

57:                                               ; preds = %48, %40
  %58 = phi i1 [ false, %40 ], [ %56, %48 ]
  br i1 %58, label %59, label %62

59:                                               ; preds = %57
  %60 = load i32, ptr %3, align 4
  %61 = add nsw i32 %60, 1
  store i32 %61, ptr %3, align 4
  br label %40, !llvm.loop !29

62:                                               ; preds = %57
  %63 = load ptr, ptr %2, align 8
  %64 = load i32, ptr %3, align 4
  %65 = sext i32 %64 to i64
  %66 = getelementptr inbounds i8, ptr %63, i64 %65
  %67 = load i8, ptr %66, align 1
  %68 = load ptr, ptr %2, align 8
  %69 = load i32, ptr %4, align 4
  %70 = add nsw i32 %69, 1
  store i32 %70, ptr %4, align 4
  %71 = sext i32 %69 to i64
  %72 = getelementptr inbounds i8, ptr %68, i64 %71
  store i8 %67, ptr %72, align 1
  br label %73

73:                                               ; preds = %62
  %74 = load i32, ptr %3, align 4
  %75 = add nsw i32 %74, 1
  store i32 %75, ptr %3, align 4
  br label %31, !llvm.loop !30

76:                                               ; preds = %31
  %77 = load ptr, ptr %2, align 8
  %78 = load i32, ptr %4, align 4
  %79 = sext i32 %78 to i64
  %80 = getelementptr inbounds i8, ptr %77, i64 %79
  store i8 0, ptr %80, align 1
  call void @llvm.lifetime.end.p0(i64 4, ptr %4) #9
  call void @llvm.lifetime.end.p0(i64 4, ptr %3) #9
  ret void
}

; Function Attrs: nounwind uwtable
define dso_local i32 @scontrol_encode_hostlist(ptr noundef %0, i1 noundef zeroext %1) #0 {
  %3 = alloca i32, align 4
  %4 = alloca ptr, align 8
  %5 = alloca i8, align 1
  %6 = alloca ptr, align 8
  %7 = alloca ptr, align 8
  %8 = alloca ptr, align 8
  %9 = alloca ptr, align 8
  %10 = alloca i32, align 4
  %11 = alloca i32, align 4
  %12 = alloca ptr, align 8
  %13 = alloca i32, align 4
  %14 = alloca i64, align 8
  %15 = alloca i32, align 4
  store ptr %0, ptr %4, align 8
  %16 = zext i1 %1 to i8
  store i8 %16, ptr %5, align 1
  call void @llvm.lifetime.start.p0(i64 8, ptr %6) #9
  store ptr null, ptr %6, align 8
  call void @llvm.lifetime.start.p0(i64 8, ptr %7) #9
  call void @llvm.lifetime.start.p0(i64 8, ptr %8) #9
  call void @llvm.lifetime.start.p0(i64 8, ptr %9) #9
  call void @llvm.lifetime.start.p0(i64 4, ptr %10) #9
  store i32 1048576, ptr %10, align 4
  call void @llvm.lifetime.start.p0(i64 4, ptr %11) #9
  store i32 0, ptr %11, align 4
  call void @llvm.lifetime.start.p0(i64 8, ptr %12) #9
  %17 = load ptr, ptr %4, align 8
  %18 = icmp ne ptr %17, null
  br i1 %18, label %22, label %19

19:                                               ; preds = %2
  %20 = load ptr, ptr @stderr, align 8
  %21 = call i32 (ptr, ptr, ...) @fprintf(ptr noundef %20, ptr noundef @.str.46) #9
  store i32 -1, ptr %3, align 4
  store i32 1, ptr %13, align 4
  br label %116

22:                                               ; preds = %2
  %23 = load ptr, ptr %4, align 8
  %24 = call i32 @xstrcmp(ptr noundef %23, ptr noundef @.str.47)
  %25 = icmp ne i32 %24, 0
  br i1 %25, label %27, label %26

26:                                               ; preds = %22
  store ptr @.str.48, ptr %9, align 8
  br label %29

27:                                               ; preds = %22
  %28 = load ptr, ptr %4, align 8
  store ptr %28, ptr %9, align 8
  br label %29

29:                                               ; preds = %27, %26
  %30 = load ptr, ptr %9, align 8
  %31 = getelementptr inbounds i8, ptr %30, i64 0
  %32 = load i8, ptr %31, align 1
  %33 = sext i8 %32 to i32
  %34 = icmp eq i32 %33, 47
  br i1 %34, label %35, label %94

35:                                               ; preds = %29
  call void @llvm.lifetime.start.p0(i64 8, ptr %14) #9
  call void @llvm.lifetime.start.p0(i64 4, ptr %15) #9
  %36 = load ptr, ptr %9, align 8
  %37 = call i32 (ptr, i32, ...) @open(ptr noundef %36, i32 noundef 0)
  store i32 %37, ptr %15, align 4
  %38 = load i32, ptr %15, align 4
  %39 = icmp slt i32 %38, 0
  br i1 %39, label %40, label %44

40:                                               ; preds = %35
  %41 = load ptr, ptr @stderr, align 8
  %42 = load ptr, ptr %9, align 8
  %43 = call i32 (ptr, ptr, ...) @fprintf(ptr noundef %41, ptr noundef @.str.49, ptr noundef %42) #9
  store i32 -1, ptr %3, align 4
  store i32 1, ptr %13, align 4
  br label %91

44:                                               ; preds = %35
  %45 = load i32, ptr %10, align 4
  %46 = add nsw i32 %45, 1
  %47 = sext i32 %46 to i64
  %48 = call ptr @slurm_xcalloc(i64 noundef 1, i64 noundef %47, i1 noundef zeroext true, i1 noundef zeroext false, ptr noundef @.str.22, i32 noundef 2188, ptr noundef @__func__.scontrol_encode_hostlist)
  store ptr %48, ptr %6, align 8
  br label %49

49:                                               ; preds = %61, %44
  %50 = load i32, ptr %15, align 4
  %51 = load ptr, ptr %6, align 8
  %52 = load i32, ptr %11, align 4
  %53 = sext i32 %52 to i64
  %54 = getelementptr inbounds i8, ptr %51, i64 %53
  %55 = load i32, ptr %10, align 4
  %56 = load i32, ptr %11, align 4
  %57 = sub nsw i32 %55, %56
  %58 = sext i32 %57 to i64
  %59 = call i64 @read(i32 noundef %50, ptr noundef %54, i64 noundef %58)
  store i64 %59, ptr %14, align 8
  %60 = icmp sgt i64 %59, 0
  br i1 %60, label %61, label %67

61:                                               ; preds = %49
  %62 = load i64, ptr %14, align 8
  %63 = load i32, ptr %11, align 4
  %64 = sext i32 %63 to i64
  %65 = add nsw i64 %64, %62
  %66 = trunc i64 %65 to i32
  store i32 %66, ptr %11, align 4
  br label %49, !llvm.loop !25

67:                                               ; preds = %49
  %68 = load i32, ptr %15, align 4
  %69 = call i32 @close(i32 noundef %68)
  %70 = load i64, ptr %14, align 8
  %71 = icmp slt i64 %70, 0
  br i1 %71, label %72, label %76

72:                                               ; preds = %67
  call void @slurm_xfree(ptr noundef %6)
  %73 = load ptr, ptr @stderr, align 8
  %74 = load ptr, ptr %9, align 8
  %75 = call i32 (ptr, ptr, ...) @fprintf(ptr noundef %73, ptr noundef @.str.50, ptr noundef %74) #9
  store i32 -1, ptr %3, align 4
  store i32 1, ptr %13, align 4
  br label %91

76:                                               ; preds = %67
  %77 = load i32, ptr %11, align 4
  %78 = load i32, ptr %10, align 4
  %79 = icmp sge i32 %77, %78
  br i1 %79, label %80, label %84

80:                                               ; preds = %76
  %81 = load ptr, ptr @stderr, align 8
  %82 = load ptr, ptr %9, align 8
  %83 = call i32 (ptr, ptr, ...) @fprintf(ptr noundef %81, ptr noundef @.str.51, ptr noundef %82) #9
  call void @slurm_xfree(ptr noundef %6)
  store i32 -1, ptr %3, align 4
  store i32 1, ptr %13, align 4
  br label %91

84:                                               ; preds = %76
  %85 = load ptr, ptr %6, align 8
  %86 = load i32, ptr %11, align 4
  %87 = sext i32 %86 to i64
  %88 = getelementptr inbounds i8, ptr %85, i64 %87
  store i8 0, ptr %88, align 1
  %89 = load ptr, ptr %6, align 8
  call void @_reformat_hostlist(ptr noundef %89)
  %90 = load ptr, ptr %6, align 8
  store ptr %90, ptr %7, align 8
  store i32 0, ptr %13, align 4
  br label %91

91:                                               ; preds = %84, %80, %72, %40
  call void @llvm.lifetime.end.p0(i64 4, ptr %15) #9
  call void @llvm.lifetime.end.p0(i64 8, ptr %14) #9
  %92 = load i32, ptr %13, align 4
  switch i32 %92, label %116 [
    i32 0, label %93
  ]

93:                                               ; preds = %91
  br label %96

94:                                               ; preds = %29
  %95 = load ptr, ptr %9, align 8
  store ptr %95, ptr %7, align 8
  br label %96

96:                                               ; preds = %94, %93
  %97 = load ptr, ptr %7, align 8
  %98 = call ptr @hostlist_create(ptr noundef %97)
  store ptr %98, ptr %12, align 8
  %99 = load ptr, ptr %12, align 8
  %100 = icmp eq ptr %99, null
  br i1 %100, label %101, label %105

101:                                              ; preds = %96
  %102 = load ptr, ptr @stderr, align 8
  %103 = load ptr, ptr %7, align 8
  %104 = call i32 (ptr, ptr, ...) @fprintf(ptr noundef %102, ptr noundef @.str.44, ptr noundef %103) #9
  call void @slurm_xfree(ptr noundef %6)
  store i32 -1, ptr %3, align 4
  store i32 1, ptr %13, align 4
  br label %116

105:                                              ; preds = %96
  %106 = load i8, ptr %5, align 1, !range !26, !noundef !27
  %107 = trunc i8 %106 to i1
  br i1 %107, label %108, label %110

108:                                              ; preds = %105
  %109 = load ptr, ptr %12, align 8
  call void @hostlist_sort(ptr noundef %109)
  br label %110

110:                                              ; preds = %108, %105
  %111 = load ptr, ptr %12, align 8
  %112 = call ptr @hostlist_ranged_string_xmalloc(ptr noundef %111)
  store ptr %112, ptr %8, align 8
  %113 = load ptr, ptr %8, align 8
  %114 = call i32 (ptr, ...) @printf(ptr noundef @.str.45, ptr noundef %113)
  %115 = load ptr, ptr %12, align 8
  call void @hostlist_destroy(ptr noundef %115)
  call void @slurm_xfree(ptr noundef %8)
  call void @slurm_xfree(ptr noundef %6)
  store i32 0, ptr %3, align 4
  store i32 1, ptr %13, align 4
  br label %116

116:                                              ; preds = %110, %101, %91, %19
  call void @llvm.lifetime.end.p0(i64 8, ptr %12) #9
  call void @llvm.lifetime.end.p0(i64 4, ptr %11) #9
  call void @llvm.lifetime.end.p0(i64 4, ptr %10) #9
  call void @llvm.lifetime.end.p0(i64 8, ptr %9) #9
  call void @llvm.lifetime.end.p0(i64 8, ptr %8) #9
  call void @llvm.lifetime.end.p0(i64 8, ptr %7) #9
  call void @llvm.lifetime.end.p0(i64 8, ptr %6) #9
  %117 = load i32, ptr %3, align 4
  ret i32 %117
}