; Function Attrs: nounwind uwtable
define dso_local range(i32 -1, 1) i32 @scontrol_encode_hostlist(ptr noundef %0, i1 noundef zeroext %1) local_unnamed_addr #0 {
  %3 = alloca ptr, align 8
  %4 = alloca ptr, align 8
  call void @llvm.lifetime.start.p0(i64 8, ptr nonnull %3) #16
  store ptr null, ptr %3, align 8
  call void @llvm.lifetime.start.p0(i64 8, ptr nonnull %4) #16
  %.not = icmp eq ptr %0, null
  br i1 %.not, label %5, label %8

5:                                                ; preds = %2
  %6 = load ptr, ptr @stderr, align 8
  %7 = tail call i64 @fwrite(ptr nonnull @.str.46, i64 17, i64 1, ptr %6) #18
  br label %.thread

8:                                                ; preds = %2
  %9 = tail call i32 @xstrcmp(ptr noundef nonnull %0, ptr noundef nonnull @.str.47) #16
  %.not39 = icmp eq i32 %9, 0
  %.str.48. = select i1 %.not39, ptr @.str.48, ptr %0
  %10 = load i8, ptr %.str.48., align 1
  %11 = icmp eq i8 %10, 47
  br i1 %11, label %12, label %66

12:                                               ; preds = %8
  %13 = tail call i32 (ptr, i32, ...) @open(ptr noundef nonnull %.str.48., i32 noundef 0) #16
  %14 = icmp slt i32 %13, 0
  br i1 %14, label %15, label %18

15:                                               ; preds = %12
  %16 = load ptr, ptr @stderr, align 8
  %17 = tail call i32 (ptr, ptr, ...) @fprintf(ptr noundef %16, ptr noundef nonnull @.str.49, ptr noundef nonnull %.str.48.) #20
  br label %.thread

18:                                               ; preds = %12
  %19 = tail call ptr @slurm_xcalloc(i64 noundef 1, i64 noundef 1048577, i1 noundef zeroext true, i1 noundef zeroext false, ptr noundef nonnull @.str.22, i32 noundef 2188, ptr noundef nonnull @__func__.scontrol_encode_hostlist) #16
  store ptr %19, ptr %3, align 8
  br label %20

20:                                               ; preds = %20, %18
  %.034 = phi i32 [ 0, %18 ], [ %28, %20 ]
  %21 = sext i32 %.034 to i64
  %22 = getelementptr inbounds i8, ptr %19, i64 %21
  %23 = sub nsw i32 1048576, %.034
  %24 = sext i32 %23 to i64
  %25 = tail call i64 @read(i32 noundef %13, ptr noundef %22, i64 noundef %24) #16
  %26 = icmp sgt i64 %25, 0
  %27 = trunc i64 %25 to i32
  %28 = add i32 %.034, %27
  br i1 %26, label %20, label %29, !llvm.loop !29

29:                                               ; preds = %20
  %30 = tail call i32 @close(i32 noundef %13) #16
  %31 = icmp slt i64 %25, 0
  br i1 %31, label %32, label %35

32:                                               ; preds = %29
  call void @slurm_xfree(ptr noundef nonnull %3) #16
  %33 = load ptr, ptr @stderr, align 8
  %34 = call i32 (ptr, ptr, ...) @fprintf(ptr noundef %33, ptr noundef nonnull @.str.50, ptr noundef nonnull %.str.48.) #20
  br label %.thread

35:                                               ; preds = %29
  %36 = icmp sgt i32 %.034, 1048575
  br i1 %36, label %37, label %40

37:                                               ; preds = %35
  %38 = load ptr, ptr @stderr, align 8
  %39 = tail call i32 (ptr, ptr, ...) @fprintf(ptr noundef %38, ptr noundef nonnull @.str.51, ptr noundef nonnull %.str.48.) #20
  call void @slurm_xfree(ptr noundef nonnull %3) #16
  br label %.thread

40:                                               ; preds = %35
  store i8 0, ptr %22, align 1
  %41 = load ptr, ptr %3, align 8
  br label %42

42:                                               ; preds = %47, %40
  %indvars.iv.i = phi i64 [ %indvars.iv.next.i, %47 ], [ 0, %40 ]
  %43 = getelementptr inbounds nuw i8, ptr %41, i64 %indvars.iv.i
  %44 = load i8, ptr %43, align 1
  switch i8 %44, label %47 [
    i8 0, label %.preheader23.i
    i8 10, label %46
  ]

.preheader23.i:                                   ; preds = %42
  %45 = load i8, ptr %41, align 1
  %.not2224.i = icmp eq i8 %45, 0
  br i1 %.not2224.i, label %63, label %.preheader.i

46:                                               ; preds = %42
  store i8 44, ptr %43, align 1
  br label %47

47:                                               ; preds = %46, %42
  %indvars.iv.next.i = add nuw nsw i64 %indvars.iv.i, 1
  br label %42, !llvm.loop !30

.preheader.i:                                     ; preds = %.preheader23.i, %.critedge.i
  %.pre.i = phi i8 [ %61, %.critedge.i ], [ %45, %.preheader23.i ]
  %indvars.iv32.i = phi i64 [ %indvars.iv.next33.i, %.critedge.i ], [ 0, %.preheader23.i ]
  %.125.i = phi i32 [ %58, %.critedge.i ], [ 0, %.preheader23.i ]
  %48 = sext i32 %.125.i to i64
  br label %49

49:                                               ; preds = %52, %.preheader.i
  %50 = phi i8 [ %.pre.i, %.preheader.i ], [ 44, %52 ]
  %indvars.iv29.i = phi i64 [ %48, %.preheader.i ], [ %indvars.iv.next30.i, %52 ]
  %51 = icmp eq i8 %50, 44
  br i1 %51, label %52, label %.critedge.i

52:                                               ; preds = %49
  %indvars.iv.next30.i = add nsw i64 %indvars.iv29.i, 1
  %53 = getelementptr inbounds i8, ptr %41, i64 %indvars.iv.next30.i
  %54 = load i8, ptr %53, align 1
  %55 = icmp eq i8 %54, 44
  br i1 %55, label %49, label %.critedge.i, !llvm.loop !31

.critedge.i:                                      ; preds = %52, %49
  %56 = trunc nsw i64 %indvars.iv29.i to i32
  %indvars.iv.next33.i = add nuw nsw i64 %indvars.iv32.i, 1
  %57 = getelementptr inbounds nuw i8, ptr %41, i64 %indvars.iv32.i
  store i8 %50, ptr %57, align 1
  %58 = add nsw i32 %56, 1
  %59 = sext i32 %58 to i64
  %60 = getelementptr inbounds i8, ptr %41, i64 %59
  %61 = load i8, ptr %60, align 1
  %.not22.i = icmp eq i8 %61, 0
  br i1 %.not22.i, label %._crit_edge.loopexit.i, label %.preheader.i, !llvm.loop !32

._crit_edge.loopexit.i:                           ; preds = %.critedge.i
  %62 = and i64 %indvars.iv.next33.i, 4294967295
  br label %63

63:                                               ; preds = %._crit_edge.loopexit.i, %.preheader23.i
  %.0.lcssa.i = phi i64 [ 0, %.preheader23.i ], [ %62, %._crit_edge.loopexit.i ]
  %64 = getelementptr inbounds nuw i8, ptr %41, i64 %.0.lcssa.i
  store i8 0, ptr %64, align 1
  %65 = load ptr, ptr %3, align 8
  br label %66

66:                                               ; preds = %63, %8
  %.131 = phi ptr [ %65, %63 ], [ %.str.48., %8 ]
  %67 = tail call ptr @hostlist_create(ptr noundef %.131) #16
  %68 = icmp eq ptr %67, null
  br i1 %68, label %69, label %72

69:                                               ; preds = %66
  %70 = load ptr, ptr @stderr, align 8
  %71 = tail call i32 (ptr, ptr, ...) @fprintf(ptr noundef %70, ptr noundef nonnull @.str.44, ptr noundef %.131) #20
  call void @slurm_xfree(ptr noundef nonnull %3) #16
  br label %.thread

72:                                               ; preds = %66
  br i1 %1, label %73, label %74

73:                                               ; preds = %72
  tail call void @hostlist_sort(ptr noundef nonnull %67) #16
  br label %74

74:                                               ; preds = %73, %72
  %75 = tail call ptr @hostlist_ranged_string_xmalloc(ptr noundef nonnull %67) #16
  store ptr %75, ptr %4, align 8
  %puts = tail call i32 @puts(ptr nonnull dereferenceable(1) %75)
  tail call void @hostlist_destroy(ptr noundef nonnull %67) #16
  call void @slurm_xfree(ptr noundef nonnull %4) #16
  call void @slurm_xfree(ptr noundef nonnull %3) #16
  br label %.thread

.thread:                                          ; preds = %37, %32, %15, %74, %69, %5
  %.0 = phi i32 [ -1, %69 ], [ 0, %74 ], [ -1, %5 ], [ -1, %15 ], [ -1, %32 ], [ -1, %37 ]
  call void @llvm.lifetime.end.p0(i64 8, ptr nonnull %4) #16
  call void @llvm.lifetime.end.p0(i64 8, ptr nonnull %3) #16
  ret i32 %.0
}